target datalayout = "e-m:e-p270:32:32-p271:32:32-p272:64:64-i64:64-i128:128-f80:128-n8:16:32:64-S128"
target triple = "x86_64-pc-linux-gnu"

%"struct.duckdb_brotli::BrotliDecoderStateStruct" = type { i32, i32, %"struct.duckdb_brotli::BrotliBitReader", ptr, ptr, ptr, %union.anon, i64, i32, i32, i32, i32, i32, i32, [4 x i32], i32, i32, ptr, ptr, ptr, ptr, ptr, ptr, %"struct.duckdb_brotli::HuffmanTreeGroup", %"struct.duckdb_brotli::HuffmanTreeGroup", %"struct.duckdb_brotli::HuffmanTreeGroup", ptr, ptr, i32, i32, [3 x i64], i64, [3 x i64], [6 x i64], i64, i64, i64, ptr, ptr, i64, i64, i64, [65 x i32], i32, i32, i8, ptr, ptr, ptr, i64, i32, i32, i32, i32, i32, i32, i64, ptr, ptr, ptr, ptr, [8 x i32], %union.anon.0 }
%"struct.duckdb_brotli::BrotliBitReader" = type { i64, i64, ptr, ptr, ptr }
%union.anon = type { i64 }
%"struct.duckdb_brotli::HuffmanTreeGroup" = type { ptr, ptr, i16, i16, i16 }
%union.anon.0 = type { %"struct.duckdb_brotli::BrotliMetablockBodyArena" }
%"struct.duckdb_brotli::BrotliMetablockBodyArena" = type { [544 x i8], [544 x i64] }

@_ZN13duckdb_brotli14kBrotliBitMaskE = external constant [33 x i64], align 16

; Function Attrs: alwaysinline mustprogress nounwind uwtable
define internal void @_ZN13duckdb_brotliL14BrotliDropBitsEPNS_15BrotliBitReaderEm(ptr noundef %0, i64 noundef %1) #7 {
  %3 = alloca ptr, align 8
  %4 = alloca i64, align 8
  store ptr %0, ptr %3, align 8, !tbaa !26
  store i64 %1, ptr %4, align 8, !tbaa !31
  %5 = load i64, ptr %4, align 8, !tbaa !31
  %6 = load ptr, ptr %3, align 8, !tbaa !26
  %7 = getelementptr inbounds nuw %"struct.duckdb_brotli::BrotliBitReader", ptr %6, i32 0, i32 1
  %8 = load i64, ptr %7, align 8, !tbaa !105
  %9 = sub i64 %8, %5
  store i64 %9, ptr %7, align 8, !tbaa !105
  %10 = load i64, ptr %4, align 8, !tbaa !31
  %11 = load ptr, ptr %3, align 8, !tbaa !26
  %12 = getelementptr inbounds nuw %"struct.duckdb_brotli::BrotliBitReader", ptr %11, i32 0, i32 0
  %13 = load i64, ptr %12, align 8, !tbaa !165
  %14 = lshr i64 %13, %10
  store i64 %14, ptr %12, align 8, !tbaa !165
  ret void
}

; Function Attrs: alwaysinline mustprogress nounwind uwtable
define internal noundef i64 @_ZN13duckdb_brotliL7BitMaskEm(i64 noundef %0) #7 {
  %2 = alloca i64, align 8
  %3 = alloca i64, align 8
  store i64 %0, ptr %3, align 8, !tbaa !31
  %4 = load i64, ptr %3, align 8, !tbaa !31
  %5 = call i1 @llvm.is.constant.i64(i64 %4)
  br i1 %5, label %6, label %10

6:                                                ; preds = %1
  %7 = load i64, ptr %3, align 8, !tbaa !31
  %8 = shl i64 -1, %7
  %9 = xor i64 %8, -1
  store i64 %9, ptr %2, align 8
  br label %14

10:                                               ; preds = %1
  %11 = load i64, ptr %3, align 8, !tbaa !31
  %12 = getelementptr inbounds nuw [33 x i64], ptr @_ZN13duckdb_brotli14kBrotliBitMaskE, i64 0, i64 %11
  %13 = load i64, ptr %12, align 8, !tbaa !31
  store i64 %13, ptr %2, align 8
  br label %14

14:                                               ; preds = %10, %6
  %15 = load i64, ptr %2, align 8
  ret i64 %15
}

; Function Attrs: alwaysinline mustprogress nounwind uwtable
define internal noundef i64 @_ZN13duckdb_brotliL21BrotliGetBitsUnmaskedEPNS_15BrotliBitReaderE(ptr noundef %0) #7 {
  %2 = alloca ptr, align 8
  store ptr %0, ptr %2, align 8, !tbaa !26
  %3 = load ptr, ptr %2, align 8, !tbaa !26
  %4 = getelementptr inbounds nuw %"struct.duckdb_brotli::BrotliBitReader", ptr %3, i32 0, i32 0
  %5 = load i64, ptr %4, align 8, !tbaa !165
  ret i64 %5
}

; Function Attrs: alwaysinline mustprogress nounwind uwtable
define internal noundef i64 @_ZN13duckdb_brotliL23BrotliBitReaderLoadBitsEmmmm(i64 noundef %0, i64 noundef %1, i64 noundef %2, i64 noundef %3) #7 {
  %5 = alloca i64, align 8
  %6 = alloca i64, align 8
  %7 = alloca i64, align 8
  %8 = alloca i64, align 8
  store i64 %0, ptr %5, align 8, !tbaa !31
  store i64 %1, ptr %6, align 8, !tbaa !31
  store i64 %2, ptr %7, align 8, !tbaa !31
  store i64 %3, ptr %8, align 8, !tbaa !31
  %9 = load i64, ptr %5, align 8, !tbaa !31
  %10 = load i64, ptr %6, align 8, !tbaa !31
  %11 = load i64, ptr %8, align 8, !tbaa !31
  %12 = shl i64 %10, %11
  %13 = or i64 %9, %12
  ret i64 %13
}

; Function Attrs: alwaysinline mustprogress uwtable
define internal void @_ZN13duckdb_brotliL14BrotliTakeBitsEPNS_15BrotliBitReaderEmPm(ptr noundef %0, i64 noundef %1, ptr noundef %2) #9 {
  %4 = alloca ptr, align 8
  %5 = alloca i64, align 8
  %6 = alloca ptr, align 8
  store ptr %0, ptr %4, align 8, !tbaa !26
  store i64 %1, ptr %5, align 8, !tbaa !31
  store ptr %2, ptr %6, align 8, !tbaa !50
  %7 = load ptr, ptr %4, align 8, !tbaa !26
  %8 = call noundef i64 @_ZN13duckdb_brotliL21BrotliGetBitsUnmaskedEPNS_15BrotliBitReaderE(ptr noundef %7)
  %9 = load i64, ptr %5, align 8, !tbaa !31
  %10 = call noundef i64 @_ZN13duckdb_brotliL7BitMaskEm(i64 noundef %9)
  %11 = and i64 %8, %10
  %12 = load ptr, ptr %6, align 8, !tbaa !50
  store i64 %11, ptr %12, align 8, !tbaa !31
  %13 = load ptr, ptr %4, align 8, !tbaa !26
  %14 = load i64, ptr %5, align 8, !tbaa !31
  call void @_ZN13duckdb_brotliL14BrotliDropBitsEPNS_15BrotliBitReaderEm(ptr noundef %13, i64 noundef %14)
  ret void
}

; Function Attrs: alwaysinline mustprogress uwtable
define internal noundef i32 @_ZN13duckdb_brotliL14BrotliPullByteEPNS_15BrotliBitReaderE(ptr noundef %0) #9 {
  %2 = alloca i32, align 4
  %3 = alloca ptr, align 8
  store ptr %0, ptr %3, align 8, !tbaa !26
  %4 = load ptr, ptr %3, align 8, !tbaa !26
  %5 = getelementptr inbounds nuw %"struct.duckdb_brotli::BrotliBitReader", ptr %4, i32 0, i32 2
  %6 = load ptr, ptr %5, align 8, !tbaa !62
  %7 = load ptr, ptr %3, align 8, !tbaa !26
  %8 = getelementptr inbounds nuw %"struct.duckdb_brotli::BrotliBitReader", ptr %7, i32 0, i32 4
  %9 = load ptr, ptr %8, align 8, !tbaa !63
  %10 = icmp eq ptr %6, %9
  br i1 %10, label %11, label %12

11:                                               ; preds = %1
  store i32 0, ptr %2, align 4
  br label %35

12:                                               ; preds = %1
  %13 = load ptr, ptr %3, align 8, !tbaa !26
  %14 = getelementptr inbounds nuw %"struct.duckdb_brotli::BrotliBitReader", ptr %13, i32 0, i32 0
  %15 = load i64, ptr %14, align 8, !tbaa !165
  %16 = load ptr, ptr %3, align 8, !tbaa !26
  %17 = getelementptr inbounds nuw %"struct.duckdb_brotli::BrotliBitReader", ptr %16, i32 0, i32 2
  %18 = load ptr, ptr %17, align 8, !tbaa !62
  %19 = load i8, ptr %18, align 1, !tbaa !65
  %20 = zext i8 %19 to i64
  %21 = load ptr, ptr %3, align 8, !tbaa !26
  %22 = getelementptr inbounds nuw %"struct.duckdb_brotli::BrotliBitReader", ptr %21, i32 0, i32 1
  %23 = load i64, ptr %22, align 8, !tbaa !105
  %24 = call noundef i64 @_ZN13duckdb_brotliL23BrotliBitReaderLoadBitsEmmmm(i64 noundef %15, i64 noundef %20, i64 noundef 8, i64 noundef %23)
  %25 = load ptr, ptr %3, align 8, !tbaa !26
  %26 = getelementptr inbounds nuw %"struct.duckdb_brotli::BrotliBitReader", ptr %25, i32 0, i32 0
  store i64 %24, ptr %26, align 8, !tbaa !165
  %27 = load ptr, ptr %3, align 8, !tbaa !26
  %28 = getelementptr inbounds nuw %"struct.duckdb_brotli::BrotliBitReader", ptr %27, i32 0, i32 1
  %29 = load i64, ptr %28, align 8, !tbaa !105
  %30 = add i64 %29, 8
  store i64 %30, ptr %28, align 8, !tbaa !105
  %31 = load ptr, ptr %3, align 8, !tbaa !26
  %32 = getelementptr inbounds nuw %"struct.duckdb_brotli::BrotliBitReader", ptr %31, i32 0, i32 2
  %33 = load ptr, ptr %32, align 8, !tbaa !62
  %34 = getelementptr inbounds nuw i8, ptr %33, i32 1
  store ptr %34, ptr %32, align 8, !tbaa !62
  store i32 1, ptr %2, align 4
  br label %35

35:                                               ; preds = %12, %11
  %36 = load i32, ptr %2, align 4
  ret i32 %36
}

; Function Attrs: alwaysinline mustprogress nounwind uwtable
define internal noundef i64 @_ZN13duckdb_brotliL22BrotliGetAvailableBitsEPKNS_15BrotliBitReaderE(ptr noundef %0) #7 {
  %2 = alloca ptr, align 8
  store ptr %0, ptr %2, align 8, !tbaa !26
  %3 = load ptr, ptr %2, align 8, !tbaa !26
  %4 = getelementptr inbounds nuw %"struct.duckdb_brotli::BrotliBitReader", ptr %3, i32 0, i32 1
  %5 = load i64, ptr %4, align 8, !tbaa !105
  ret i64 %5
}

; Function Attrs: alwaysinline mustprogress uwtable
define internal noundef i32 @_ZN13duckdb_brotliL18BrotliSafeReadBitsEPNS_15BrotliBitReaderEmPm(ptr noundef %0, i64 noundef %1, ptr noundef %2) #9 {
  %4 = alloca i32, align 4
  %5 = alloca ptr, align 8
  %6 = alloca i64, align 8
  %7 = alloca ptr, align 8
  store ptr %0, ptr %5, align 8, !tbaa !26
  store i64 %1, ptr %6, align 8, !tbaa !31
  store ptr %2, ptr %7, align 8, !tbaa !50
  br label %8

8:                                                ; preds = %18, %3
  %9 = load ptr, ptr %5, align 8, !tbaa !26
  %10 = call noundef i64 @_ZN13duckdb_brotliL22BrotliGetAvailableBitsEPKNS_15BrotliBitReaderE(ptr noundef %9)
  %11 = load i64, ptr %6, align 8, !tbaa !31
  %12 = icmp ult i64 %10, %11
  br i1 %12, label %13, label %19

13:                                               ; preds = %8
  %14 = load ptr, ptr %5, align 8, !tbaa !26
  %15 = call noundef i32 @_ZN13duckdb_brotliL14BrotliPullByteEPNS_15BrotliBitReaderE(ptr noundef %14)
  %16 = icmp ne i32 %15, 0
  br i1 %16, label %18, label %17

17:                                               ; preds = %13
  store i32 0, ptr %4, align 4
  br label %23

18:                                               ; preds = %13
  br label %8, !llvm.loop !106

19:                                               ; preds = %8
  %20 = load ptr, ptr %5, align 8, !tbaa !26
  %21 = load i64, ptr %6, align 8, !tbaa !31
  %22 = load ptr, ptr %7, align 8, !tbaa !50
  call void @_ZN13duckdb_brotliL14BrotliTakeBitsEPNS_15BrotliBitReaderEmPm(ptr noundef %20, i64 noundef %21, ptr noundef %22)
  store i32 1, ptr %4, align 4
  br label %23

23:                                               ; preds = %19, %17
  %24 = load i32, ptr %4, align 4
  ret i32 %24
}

; Function Attrs: mustprogress noinline uwtable
define internal noundef i32 @_ZN13duckdb_brotliL17DecodeVarLenUint8EPNS_24BrotliDecoderStateStructEPNS_15BrotliBitReaderEPm(ptr noundef %0, ptr noundef %1, ptr noundef %2) #8 {
  %4 = alloca i32, align 4
  %5 = alloca ptr, align 8
  %6 = alloca ptr, align 8
  %7 = alloca ptr, align 8
  %8 = alloca i64, align 8
  %9 = alloca i32, align 4
  store ptr %0, ptr %5, align 8, !tbaa !3
  store ptr %1, ptr %6, align 8, !tbaa !26
  store ptr %2, ptr %7, align 8, !tbaa !50
  call void @llvm.lifetime.start.p0(i64 8, ptr %8) #14
  %10 = load ptr, ptr %5, align 8, !tbaa !3
  %11 = getelementptr inbounds nuw %"struct.duckdb_brotli::BrotliDecoderStateStruct", ptr %10, i32 0, i32 52
  %12 = load i32, ptr %11, align 8, !tbaa !113
  switch i32 %12, label %73 [
    i32 0, label %13
    i32 1, label %28
    i32 2, label %49
  ]

13:                                               ; preds = %3
  %14 = load ptr, ptr %6, align 8, !tbaa !26
  %15 = call noundef i32 @_ZN13duckdb_brotliL18BrotliSafeReadBitsEPNS_15BrotliBitReaderEmPm(ptr noundef %14, i64 noundef 1, ptr noundef %8)
  %16 = icmp ne i32 %15, 0
  %17 = xor i1 %16, true
  %18 = zext i1 %17 to i64
  %19 = call i64 @llvm.expect.i64(i64 %18, i64 0)
  %20 = icmp ne i64 %19, 0
  br i1 %20, label %21, label %22

21:                                               ; preds = %13
  store i32 2, ptr %4, align 4
  store i32 1, ptr %9, align 4
  br label %74

22:                                               ; preds = %13
  %23 = load i64, ptr %8, align 8, !tbaa !31
  %24 = icmp eq i64 %23, 0
  br i1 %24, label %25, label %27

25:                                               ; preds = %22
  %26 = load ptr, ptr %7, align 8, !tbaa !50
  store i64 0, ptr %26, align 8, !tbaa !31
  store i32 1, ptr %4, align 4
  store i32 1, ptr %9, align 4
  br label %74

27:                                               ; preds = %22
  br label %28

28:                                               ; preds = %3, %27
  %29 = load ptr, ptr %6, align 8, !tbaa !26
  %30 = call noundef i32 @_ZN13duckdb_brotliL18BrotliSafeReadBitsEPNS_15BrotliBitReaderEmPm(ptr noundef %29, i64 noundef 3, ptr noundef %8)
  %31 = icmp ne i32 %30, 0
  %32 = xor i1 %31, true
  %33 = zext i1 %32 to i64
  %34 = call i64 @llvm.expect.i64(i64 %33, i64 0)
  %35 = icmp ne i64 %34, 0
  br i1 %35, label %36, label %39

36:                                               ; preds = %28
  %37 = load ptr, ptr %5, align 8, !tbaa !3
  %38 = getelementptr inbounds nuw %"struct.duckdb_brotli::BrotliDecoderStateStruct", ptr %37, i32 0, i32 52
  store i32 1, ptr %38, align 8, !tbaa !113
  store i32 2, ptr %4, align 4
  store i32 1, ptr %9, align 4
  br label %74

39:                                               ; preds = %28
  %40 = load i64, ptr %8, align 8, !tbaa !31
  %41 = icmp eq i64 %40, 0
  br i1 %41, label %42, label %46

42:                                               ; preds = %39
  %43 = load ptr, ptr %7, align 8, !tbaa !50
  store i64 1, ptr %43, align 8, !tbaa !31
  %44 = load ptr, ptr %5, align 8, !tbaa !3
  %45 = getelementptr inbounds nuw %"struct.duckdb_brotli::BrotliDecoderStateStruct", ptr %44, i32 0, i32 52
  store i32 0, ptr %45, align 8, !tbaa !113
  store i32 1, ptr %4, align 4
  store i32 1, ptr %9, align 4
  br label %74

46:                                               ; preds = %39
  %47 = load i64, ptr %8, align 8, !tbaa !31
  %48 = load ptr, ptr %7, align 8, !tbaa !50
  store i64 %47, ptr %48, align 8, !tbaa !31
  br label %49

49:                                               ; preds = %3, %46
  %50 = load ptr, ptr %6, align 8, !tbaa !26
  %51 = load ptr, ptr %7, align 8, !tbaa !50
  %52 = load i64, ptr %51, align 8, !tbaa !31
  %53 = call noundef i32 @_ZN13duckdb_brotliL18BrotliSafeReadBitsEPNS_15BrotliBitReaderEmPm(ptr noundef %50, i64 noundef %52, ptr noundef %8)
  %54 = icmp ne i32 %53, 0
  %55 = xor i1 %54, true
  %56 = zext i1 %55 to i64
  %57 = call i64 @llvm.expect.i64(i64 %56, i64 0)
  %58 = icmp ne i64 %57, 0
  br i1 %58, label %59, label %62

59:                                               ; preds = %49
  %60 = load ptr, ptr %5, align 8, !tbaa !3
  %61 = getelementptr inbounds nuw %"struct.duckdb_brotli::BrotliDecoderStateStruct", ptr %60, i32 0, i32 52
  store i32 2, ptr %61, align 8, !tbaa !113
  store i32 2, ptr %4, align 4
  store i32 1, ptr %9, align 4
  br label %74

62:                                               ; preds = %49
  %63 = load ptr, ptr %7, align 8, !tbaa !50
  %64 = load i64, ptr %63, align 8, !tbaa !31
  %65 = trunc i64 %64 to i32
  %66 = shl i32 1, %65
  %67 = zext i32 %66 to i64
  %68 = load i64, ptr %8, align 8, !tbaa !31
  %69 = add i64 %67, %68
  %70 = load ptr, ptr %7, align 8, !tbaa !50
  store i64 %69, ptr %70, align 8, !tbaa !31
  %71 = load ptr, ptr %5, align 8, !tbaa !3
  %72 = getelementptr inbounds nuw %"struct.duckdb_brotli::BrotliDecoderStateStruct", ptr %71, i32 0, i32 52
  store i32 0, ptr %72, align 8, !tbaa !113
  store i32 1, ptr %4, align 4
  store i32 1, ptr %9, align 4
  br label %74

73:                                               ; preds = %3
  store i32 -31, ptr %4, align 4
  store i32 1, ptr %9, align 4
  br label %74

74:                                               ; preds = %73, %62, %59, %42, %36, %25, %21
  call void @llvm.lifetime.end.p0(i64 8, ptr %8) #14
  %75 = load i32, ptr %4, align 4
  ret i32 %75
}