; Function Attrs: mustprogress nofree noinline norecurse nosync nounwind memory(read, argmem: readwrite, inaccessiblemem: none) uwtable
define internal fastcc noundef range(i32 -31, 3) i32 @_ZN13duckdb_brotliL17DecodeVarLenUint8EPNS_24BrotliDecoderStateStructEPNS_15BrotliBitReaderEPm(ptr noundef captures(none) %0, ptr noundef captures(none) %1, ptr noundef captures(none) %2) unnamed_addr #8 {
  %4 = getelementptr inbounds nuw i8, ptr %0, i64 760
  %5 = load i32, ptr %4, align 8, !tbaa !128
  switch i32 %5, label %_ZN13duckdb_brotliL18BrotliSafeReadBitsEPNS_15BrotliBitReaderEmPm.exit22.thread [
    i32 0, label %.preheader
    i32 1, label %._crit_edge
    i32 2, label %._crit_edge78
  ]

._crit_edge78:                                    ; preds = %3
  %.pre79 = load i64, ptr %2, align 8, !tbaa !30
  br label %46

._crit_edge:                                      ; preds = %3
  %.phi.trans.insert = getelementptr inbounds nuw i8, ptr %1, i64 8
  %.promoted60.pre = load i64, ptr %.phi.trans.insert, align 8, !tbaa !51
  br label %24

.preheader:                                       ; preds = %3
  %6 = getelementptr inbounds nuw i8, ptr %1, i64 8
  %.promoted = load i64, ptr %6, align 8, !tbaa !51
  %7 = icmp eq i64 %.promoted, 0
  br i1 %7, label %.lr.ph.split, label %.preheader._crit_edge

.preheader._crit_edge:                            ; preds = %.preheader
  %.pre = load i64, ptr %1, align 8, !tbaa !52
  %8 = add i64 %.promoted, -1
  br label %18

.lr.ph.split:                                     ; preds = %.preheader
  %9 = getelementptr inbounds nuw i8, ptr %1, i64 16
  %.promoted58 = load ptr, ptr %9, align 8, !tbaa !45
  %10 = getelementptr inbounds nuw i8, ptr %1, i64 32
  %11 = load ptr, ptr %10, align 8, !tbaa !46
  %12 = icmp eq ptr %.promoted58, %11
  br i1 %12, label %_ZN13duckdb_brotliL18BrotliSafeReadBitsEPNS_15BrotliBitReaderEmPm.exit22.thread, label %_ZN13duckdb_brotliL14BrotliPullByteEPNS_15BrotliBitReaderE.exit

_ZN13duckdb_brotliL14BrotliPullByteEPNS_15BrotliBitReaderE.exit: ; preds = %.lr.ph.split
  %13 = load i64, ptr %1, align 8, !tbaa !52
  %14 = load i8, ptr %.promoted58, align 1, !tbaa !49
  %15 = zext i8 %14 to i64
  %16 = or i64 %13, %15
  %17 = getelementptr inbounds nuw i8, ptr %.promoted58, i64 1
  store ptr %17, ptr %9, align 8, !tbaa !45
  br label %18

18:                                               ; preds = %.preheader._crit_edge, %_ZN13duckdb_brotliL14BrotliPullByteEPNS_15BrotliBitReaderE.exit
  %19 = phi i64 [ %16, %_ZN13duckdb_brotliL14BrotliPullByteEPNS_15BrotliBitReaderE.exit ], [ %.pre, %.preheader._crit_edge ]
  %.lcssa53 = phi i64 [ 7, %_ZN13duckdb_brotliL14BrotliPullByteEPNS_15BrotliBitReaderE.exit ], [ %8, %.preheader._crit_edge ]
  %20 = and i64 %19, 1
  store i64 %.lcssa53, ptr %6, align 8, !tbaa !51
  %21 = lshr i64 %19, 1
  store i64 %21, ptr %1, align 8, !tbaa !52
  %22 = icmp eq i64 %20, 0
  br i1 %22, label %23, label %24

23:                                               ; preds = %18
  store i64 0, ptr %2, align 8, !tbaa !30
  br label %_ZN13duckdb_brotliL18BrotliSafeReadBitsEPNS_15BrotliBitReaderEmPm.exit22.thread

24:                                               ; preds = %._crit_edge, %18
  %.promoted60 = phi i64 [ %.promoted60.pre, %._crit_edge ], [ %.lcssa53, %18 ]
  %25 = getelementptr inbounds nuw i8, ptr %1, i64 8
  %26 = icmp ult i64 %.promoted60, 3
  br i1 %26, label %.lr.ph62, label %.._crit_edge63_crit_edge

.._crit_edge63_crit_edge:                         ; preds = %24
  %.pre77 = load i64, ptr %1, align 8, !tbaa !52
  br label %._crit_edge63

.lr.ph62:                                         ; preds = %24
  %27 = getelementptr inbounds nuw i8, ptr %1, i64 16
  %28 = getelementptr inbounds nuw i8, ptr %1, i64 32
  %29 = load ptr, ptr %28, align 8, !tbaa !46
  %.promoted66 = load ptr, ptr %27, align 8, !tbaa !45
  %30 = icmp eq ptr %.promoted66, %29
  br i1 %30, label %38, label %_ZN13duckdb_brotliL14BrotliPullByteEPNS_15BrotliBitReaderE.exit25

_ZN13duckdb_brotliL14BrotliPullByteEPNS_15BrotliBitReaderE.exit25: ; preds = %.lr.ph62
  %31 = load i64, ptr %1, align 8, !tbaa !52
  %32 = load i8, ptr %.promoted66, align 1, !tbaa !49
  %33 = zext i8 %32 to i64
  %34 = shl nuw nsw i64 %33, %.promoted60
  %35 = or i64 %34, %31
  %36 = or disjoint i64 %.promoted60, 8
  %37 = getelementptr inbounds nuw i8, ptr %.promoted66, i64 1
  store ptr %37, ptr %27, align 8, !tbaa !45
  br label %._crit_edge63

38:                                               ; preds = %.lr.ph62
  store i32 1, ptr %4, align 8, !tbaa !128
  br label %_ZN13duckdb_brotliL18BrotliSafeReadBitsEPNS_15BrotliBitReaderEmPm.exit22.thread

._crit_edge63:                                    ; preds = %.._crit_edge63_crit_edge, %_ZN13duckdb_brotliL14BrotliPullByteEPNS_15BrotliBitReaderE.exit25
  %39 = phi i64 [ %.pre77, %.._crit_edge63_crit_edge ], [ %35, %_ZN13duckdb_brotliL14BrotliPullByteEPNS_15BrotliBitReaderE.exit25 ]
  %.lcssa49 = phi i64 [ %.promoted60, %.._crit_edge63_crit_edge ], [ %36, %_ZN13duckdb_brotliL14BrotliPullByteEPNS_15BrotliBitReaderE.exit25 ]
  %40 = and i64 %39, 7
  %41 = add i64 %.lcssa49, -3
  store i64 %41, ptr %25, align 8, !tbaa !51
  %42 = lshr i64 %39, 3
  store i64 %42, ptr %1, align 8, !tbaa !52
  %43 = icmp eq i64 %40, 0
  br i1 %43, label %44, label %45

44:                                               ; preds = %._crit_edge63
  store i64 1, ptr %2, align 8, !tbaa !30
  store i32 0, ptr %4, align 8, !tbaa !128
  br label %_ZN13duckdb_brotliL18BrotliSafeReadBitsEPNS_15BrotliBitReaderEmPm.exit22.thread

45:                                               ; preds = %._crit_edge63
  store i64 %40, ptr %2, align 8, !tbaa !30
  br label %46

46:                                               ; preds = %._crit_edge78, %45
  %47 = phi i64 [ %.pre79, %._crit_edge78 ], [ %40, %45 ]
  %48 = getelementptr inbounds nuw i8, ptr %1, i64 8
  %.promoted67 = load i64, ptr %48, align 8, !tbaa !51
  %49 = icmp ult i64 %.promoted67, %47
  br i1 %49, label %.lr.ph69, label %.._crit_edge70_crit_edge

.._crit_edge70_crit_edge:                         ; preds = %46
  %.pre80 = load i64, ptr %1, align 8, !tbaa !52
  br label %._crit_edge70

.lr.ph69:                                         ; preds = %46
  %50 = getelementptr inbounds nuw i8, ptr %1, i64 16
  %51 = getelementptr inbounds nuw i8, ptr %1, i64 32
  %52 = load ptr, ptr %51, align 8, !tbaa !46
  %.promoted73 = load ptr, ptr %50, align 8, !tbaa !45
  br label %53

53:                                               ; preds = %.lr.ph69, %_ZN13duckdb_brotliL14BrotliPullByteEPNS_15BrotliBitReaderE.exit27
  %54 = phi ptr [ %.promoted73, %.lr.ph69 ], [ %63, %_ZN13duckdb_brotliL14BrotliPullByteEPNS_15BrotliBitReaderE.exit27 ]
  %55 = phi i64 [ %.promoted67, %.lr.ph69 ], [ %62, %_ZN13duckdb_brotliL14BrotliPullByteEPNS_15BrotliBitReaderE.exit27 ]
  %56 = icmp eq ptr %54, %52
  br i1 %56, label %65, label %_ZN13duckdb_brotliL14BrotliPullByteEPNS_15BrotliBitReaderE.exit27

_ZN13duckdb_brotliL14BrotliPullByteEPNS_15BrotliBitReaderE.exit27: ; preds = %53
  %57 = load i64, ptr %1, align 8, !tbaa !52
  %58 = load i8, ptr %54, align 1, !tbaa !49
  %59 = zext i8 %58 to i64
  %60 = shl i64 %59, %55
  %61 = or i64 %60, %57
  store i64 %61, ptr %1, align 8, !tbaa !52
  %62 = add i64 %55, 8
  store i64 %62, ptr %48, align 8, !tbaa !51
  %63 = getelementptr inbounds nuw i8, ptr %54, i64 1
  store ptr %63, ptr %50, align 8, !tbaa !45
  %64 = icmp ult i64 %62, %47
  br i1 %64, label %53, label %._crit_edge70, !llvm.loop !79

65:                                               ; preds = %53
  store i32 2, ptr %4, align 8, !tbaa !128
  br label %_ZN13duckdb_brotliL18BrotliSafeReadBitsEPNS_15BrotliBitReaderEmPm.exit22.thread

._crit_edge70:                                    ; preds = %_ZN13duckdb_brotliL14BrotliPullByteEPNS_15BrotliBitReaderE.exit27, %.._crit_edge70_crit_edge
  %66 = phi i64 [ %.pre80, %.._crit_edge70_crit_edge ], [ %61, %_ZN13duckdb_brotliL14BrotliPullByteEPNS_15BrotliBitReaderE.exit27 ]
  %.lcssa = phi i64 [ %.promoted67, %.._crit_edge70_crit_edge ], [ %62, %_ZN13duckdb_brotliL14BrotliPullByteEPNS_15BrotliBitReaderE.exit27 ]
  %67 = getelementptr inbounds nuw [33 x i64], ptr @_ZN13duckdb_brotli14kBrotliBitMaskE, i64 0, i64 %47
  %68 = load i64, ptr %67, align 8, !tbaa !30
  %69 = and i64 %68, %66
  %70 = sub i64 %.lcssa, %47
  store i64 %70, ptr %48, align 8, !tbaa !51
  %71 = lshr i64 %66, %47
  store i64 %71, ptr %1, align 8, !tbaa !52
  %72 = load i64, ptr %2, align 8, !tbaa !30
  %73 = trunc i64 %72 to i32
  %74 = shl nuw i32 1, %73
  %75 = zext i32 %74 to i64
  %76 = add i64 %69, %75
  store i64 %76, ptr %2, align 8, !tbaa !30
  store i32 0, ptr %4, align 8, !tbaa !128
  br label %_ZN13duckdb_brotliL18BrotliSafeReadBitsEPNS_15BrotliBitReaderEmPm.exit22.thread

_ZN13duckdb_brotliL18BrotliSafeReadBitsEPNS_15BrotliBitReaderEmPm.exit22.thread: ; preds = %.lr.ph.split, %3, %._crit_edge70, %65, %44, %38, %23
  %.0 = phi i32 [ 2, %65 ], [ 1, %._crit_edge70 ], [ 2, %38 ], [ 1, %44 ], [ 1, %23 ], [ -31, %3 ], [ 2, %.lr.ph.split ]
  ret i32 %.0
}